#include <math.h>
#include <stdio.h>
#include <stdlib.h>
#include <string.h>

int main ()
{
	int a,b,c,i;
	scanf("%d",&a);
	for (i=1;a!=1;i++)
	{
		if (a%2==0)
		{   b=a/2;
            printf("%d/2=%d\n",a,b);
			a=b;
			continue;
		}
		else if (a!=1)
			{
			c=a*3+1;
			 printf("%d*3+1=%d\n",a,c);
			 a=c;
		}
		else
			break;
	}
	printf("End\n");
	return 0;
}